target datalayout = "e-m:e-p270:32:32-p271:32:32-p272:64:64-i64:64-i128:128-f80:128-n8:16:32:64-S128"
target triple = "x86_64-unknown-linux-gnu"

%class.btVector3 = type { [4 x float] }
%class.btQuaternion = type { %class.btQuadWord }
%class.btQuadWord = type { [4 x float] }
%class.btMatrix3x3 = type { [3 x %class.btVector3] }
%class.btMultiBody = type { ptr, ptr, ptr, %class.btVector3, %class.btVector3, %class.btQuaternion, %class.btQuaternion, float, %class.btVector3, %class.btVector3, %class.btVector3, %class.btVector3, %class.btVector3, [4 x i8], %class.btAlignedObjectArray, %class.btAlignedObjectArray.0, %class.btAlignedObjectArray.0, %class.btAlignedObjectArray.0, %class.btAlignedObjectArray.4, %class.btAlignedObjectArray.8, %class.btMatrix3x3, %class.btMatrix3x3, %class.btMatrix3x3, %class.btMatrix3x3, i8, i8, i8, i8, i8, float, float, float, ptr, i32, i32, i32, float, float, i8, float, float, i8, i8, i32, i32, i8, i8, i8, i8 }
%class.btAlignedObjectArray = type <{ %class.btAlignedAllocator, [3 x i8], i32, i32, [4 x i8], ptr, i8, [7 x i8] }>
%class.btAlignedAllocator = type { i8 }
%class.btAlignedObjectArray.0 = type <{ %class.btAlignedAllocator.1, [3 x i8], i32, i32, [4 x i8], ptr, i8, [7 x i8] }>
%class.btAlignedAllocator.1 = type { i8 }
%class.btAlignedObjectArray.4 = type <{ %class.btAlignedAllocator.5, [3 x i8], i32, i32, [4 x i8], ptr, i8, [7 x i8] }>
%class.btAlignedAllocator.5 = type { i8 }
%class.btAlignedObjectArray.8 = type <{ %class.btAlignedAllocator.9, [3 x i8], i32, i32, [4 x i8], ptr, i8, [7 x i8] }>
%class.btAlignedAllocator.9 = type { i8 }

@gDisableDeactivation = external global i8, align 1

; Function Attrs: mustprogress nounwind uwtable
define dso_local void @_ZN11btMultiBody6wakeUpEv(ptr noundef nonnull align 8 dereferenceable(640) %this) #1 align 2 {
entry:
  %this.addr = alloca ptr, align 8
  store ptr %this, ptr %this.addr, align 8
  %this1 = load ptr, ptr %this.addr, align 8
  %m_sleepTimer = getelementptr inbounds %class.btMultiBody, ptr %this1, i32 0, i32 29
  store float 0.000000e+00, ptr %m_sleepTimer, align 8
  %m_awake = getelementptr inbounds %class.btMultiBody, ptr %this1, i32 0, i32 26
  store i8 1, ptr %m_awake, align 2
  ret void
}

; Function Attrs: mustprogress nounwind uwtable
define dso_local void @_ZN11btMultiBody9goToSleepEv(ptr noundef nonnull align 8 dereferenceable(640) %this) #1 align 2 {
entry:
  %this.addr = alloca ptr, align 8
  store ptr %this, ptr %this.addr, align 8
  %this1 = load ptr, ptr %this.addr, align 8
  %m_awake = getelementptr inbounds %class.btMultiBody, ptr %this1, i32 0, i32 26
  store i8 0, ptr %m_awake, align 2
  ret void
}

; Function Attrs: mustprogress nounwind uwtable
define linkonce_odr dso_local noundef nonnull align 4 dereferenceable(4) ptr @_ZN20btAlignedObjectArrayIfEixEi(ptr noundef nonnull align 8 dereferenceable(25) %this, i32 noundef %n) #1 comdat align 2 {
entry:
  %this.addr = alloca ptr, align 8
  %n.addr = alloca i32, align 4
  store ptr %this, ptr %this.addr, align 8
  store i32 %n, ptr %n.addr, align 4
  %this1 = load ptr, ptr %this.addr, align 8
  %m_data = getelementptr inbounds %class.btAlignedObjectArray.0, ptr %this1, i32 0, i32 5
  %0 = load ptr, ptr %m_data, align 8
  %1 = load i32, ptr %n.addr, align 4
  %idxprom = sext i32 %1 to i64
  %arrayidx = getelementptr inbounds float, ptr %0, i64 %idxprom
  ret ptr %arrayidx
}

; Function Attrs: mustprogress uwtable
define dso_local void @_ZN11btMultiBody29checkMotionAndSleepIfRequiredEf(ptr noundef nonnull align 8 dereferenceable(640) %this, float noundef %timestep) #3 align 2 {
entry:
  %this.addr = alloca ptr, align 8
  %timestep.addr = alloca float, align 4
  %motion = alloca float, align 4
  %i = alloca i32, align 4
  store ptr %this, ptr %this.addr, align 8
  store float %timestep, ptr %timestep.addr, align 4
  %this1 = load ptr, ptr %this.addr, align 8
  %m_canSleep = getelementptr inbounds %class.btMultiBody, ptr %this1, i32 0, i32 27
  %0 = load i8, ptr %m_canSleep, align 1
  %tobool = trunc i8 %0 to i1
  br i1 %tobool, label %lor.lhs.false, label %if.then

lor.lhs.false:                                    ; preds = %entry
  %1 = load i8, ptr @gDisableDeactivation, align 1
  %tobool2 = trunc i8 %1 to i1
  br i1 %tobool2, label %if.then, label %if.end

if.then:                                          ; preds = %lor.lhs.false, %entry
  %m_awake = getelementptr inbounds %class.btMultiBody, ptr %this1, i32 0, i32 26
  store i8 1, ptr %m_awake, align 2
  %m_sleepTimer = getelementptr inbounds %class.btMultiBody, ptr %this1, i32 0, i32 29
  store float 0.000000e+00, ptr %m_sleepTimer, align 8
  br label %if.end21

if.end:                                           ; preds = %lor.lhs.false
  store float 0.000000e+00, ptr %motion, align 4
  store i32 0, ptr %i, align 4
  br label %for.cond

for.cond:                                         ; preds = %for.inc, %if.end
  %2 = load i32, ptr %i, align 4
  %m_dofCount = getelementptr inbounds %class.btMultiBody, ptr %this1, i32 0, i32 43
  %3 = load i32, ptr %m_dofCount, align 4
  %add = add nsw i32 6, %3
  %cmp = icmp slt i32 %2, %add
  br i1 %cmp, label %for.body, label %for.end

for.body:                                         ; preds = %for.cond
  %m_realBuf = getelementptr inbounds %class.btMultiBody, ptr %this1, i32 0, i32 17
  %4 = load i32, ptr %i, align 4
  %call = call noundef nonnull align 4 dereferenceable(4) ptr @_ZN20btAlignedObjectArrayIfEixEi(ptr noundef nonnull align 8 dereferenceable(25) %m_realBuf, i32 noundef %4)
  %5 = load float, ptr %call, align 4
  %m_realBuf3 = getelementptr inbounds %class.btMultiBody, ptr %this1, i32 0, i32 17
  %6 = load i32, ptr %i, align 4
  %call4 = call noundef nonnull align 4 dereferenceable(4) ptr @_ZN20btAlignedObjectArrayIfEixEi(ptr noundef nonnull align 8 dereferenceable(25) %m_realBuf3, i32 noundef %6)
  %7 = load float, ptr %call4, align 4
  %8 = load float, ptr %motion, align 4
  %9 = call float @llvm.fmuladd.f32(float %5, float %7, float %8)
  store float %9, ptr %motion, align 4
  br label %for.inc

for.inc:                                          ; preds = %for.body
  %10 = load i32, ptr %i, align 4
  %inc = add nsw i32 %10, 1
  store i32 %inc, ptr %i, align 4
  br label %for.cond, !llvm.loop !75

for.end:                                          ; preds = %for.cond
  %11 = load float, ptr %motion, align 4
  %m_sleepEpsilon = getelementptr inbounds %class.btMultiBody, ptr %this1, i32 0, i32 30
  %12 = load float, ptr %m_sleepEpsilon, align 4
  %cmp5 = fcmp olt float %11, %12
  br i1 %cmp5, label %if.then6, label %if.else

if.then6:                                         ; preds = %for.end
  %13 = load float, ptr %timestep.addr, align 4
  %m_sleepTimer7 = getelementptr inbounds %class.btMultiBody, ptr %this1, i32 0, i32 29
  %14 = load float, ptr %m_sleepTimer7, align 8
  %add8 = fadd float %14, %13
  store float %add8, ptr %m_sleepTimer7, align 8
  %m_sleepTimer9 = getelementptr inbounds %class.btMultiBody, ptr %this1, i32 0, i32 29
  %15 = load float, ptr %m_sleepTimer9, align 8
  %m_sleepTimeout = getelementptr inbounds %class.btMultiBody, ptr %this1, i32 0, i32 31
  %16 = load float, ptr %m_sleepTimeout, align 8
  %cmp10 = fcmp ogt float %15, %16
  br i1 %cmp10, label %if.then11, label %if.end12

if.then11:                                        ; preds = %if.then6
  call void @_ZN11btMultiBody9goToSleepEv(ptr noundef nonnull align 8 dereferenceable(640) %this1)
  br label %if.end12

if.end12:                                         ; preds = %if.then11, %if.then6
  br label %if.end21

if.else:                                          ; preds = %for.end
  %m_sleepTimer13 = getelementptr inbounds %class.btMultiBody, ptr %this1, i32 0, i32 29
  store float 0.000000e+00, ptr %m_sleepTimer13, align 8
  %m_canWakeup = getelementptr inbounds %class.btMultiBody, ptr %this1, i32 0, i32 28
  %17 = load i8, ptr %m_canWakeup, align 4
  %tobool14 = trunc i8 %17 to i1
  br i1 %tobool14, label %if.then15, label %if.end20

if.then15:                                        ; preds = %if.else
  %m_awake16 = getelementptr inbounds %class.btMultiBody, ptr %this1, i32 0, i32 26
  %18 = load i8, ptr %m_awake16, align 2
  %tobool17 = trunc i8 %18 to i1
  br i1 %tobool17, label %if.end19, label %if.then18

if.then18:                                        ; preds = %if.then15
  call void @_ZN11btMultiBody6wakeUpEv(ptr noundef nonnull align 8 dereferenceable(640) %this1)
  br label %if.end19

if.end19:                                         ; preds = %if.then18, %if.then15
  br label %if.end20

if.end20:                                         ; preds = %if.end19, %if.else
  br label %if.end21

if.end21:                                         ; preds = %if.end20, %if.end12, %if.then
  ret void
}