; Function Attrs: mustprogress nofree norecurse nosync nounwind memory(read, argmem: readwrite, inaccessiblemem: none) uwtable
define dso_local void @_ZN11btMultiBody29checkMotionAndSleepIfRequiredEf(ptr nocapture noundef nonnull align 8 dereferenceable(640) %this, float noundef %timestep) local_unnamed_addr #16 align 2 {
entry:
  %m_canSleep = getelementptr inbounds i8, ptr %this, i64 563
  %0 = load i8, ptr %m_canSleep, align 1
  %1 = and i8 %0, 1
  %tobool.not = icmp eq i8 %1, 0
  br i1 %tobool.not, label %if.then, label %lor.lhs.false

lor.lhs.false:                                    ; preds = %entry
  %2 = load i8, ptr @gDisableDeactivation, align 1
  %3 = and i8 %2, 1
  %tobool2.not = icmp eq i8 %3, 0
  br i1 %tobool2.not, label %for.cond.preheader, label %if.then

for.cond.preheader:                               ; preds = %lor.lhs.false
  %m_dofCount = getelementptr inbounds i8, ptr %this, i64 628
  %4 = load i32, ptr %m_dofCount, align 4
  %cmp9 = icmp sgt i32 %4, -6
  br i1 %cmp9, label %for.body.lr.ph, label %for.end

for.body.lr.ph:                                   ; preds = %for.cond.preheader
  %m_data.i = getelementptr inbounds i8, ptr %this, i64 288
  %5 = load ptr, ptr %m_data.i, align 8
  %6 = add i32 %4, 5
  %smax = tail call i32 @llvm.smax.i32(i32 %6, i32 0)
  %7 = add nuw i32 %smax, 1
  %wide.trip.count = zext i32 %7 to i64
  br label %for.body

if.then:                                          ; preds = %lor.lhs.false, %entry
  %m_awake = getelementptr inbounds i8, ptr %this, i64 562
  store i8 1, ptr %m_awake, align 2
  %m_sleepTimer = getelementptr inbounds i8, ptr %this, i64 568
  store float 0.000000e+00, ptr %m_sleepTimer, align 8
  br label %if.end21

for.body:                                         ; preds = %for.body.lr.ph, %for.body
  %indvars.iv = phi i64 [ 0, %for.body.lr.ph ], [ %indvars.iv.next, %for.body ]
  %motion.010 = phi float [ 0.000000e+00, %for.body.lr.ph ], [ %9, %for.body ]
  %arrayidx.i = getelementptr inbounds float, ptr %5, i64 %indvars.iv
  %8 = load float, ptr %arrayidx.i, align 4
  %9 = tail call float @llvm.fmuladd.f32(float %8, float %8, float %motion.010)
  %indvars.iv.next = add nuw nsw i64 %indvars.iv, 1
  %exitcond.not = icmp eq i64 %indvars.iv.next, %wide.trip.count
  br i1 %exitcond.not, label %for.end, label %for.body, !llvm.loop !197

for.end:                                          ; preds = %for.body, %for.cond.preheader
  %motion.0.lcssa = phi float [ 0.000000e+00, %for.cond.preheader ], [ %9, %for.body ]
  %m_sleepEpsilon = getelementptr inbounds i8, ptr %this, i64 572
  %10 = load float, ptr %m_sleepEpsilon, align 4
  %cmp5 = fcmp olt float %motion.0.lcssa, %10
  %m_sleepTimer7 = getelementptr inbounds i8, ptr %this, i64 568
  br i1 %cmp5, label %if.then6, label %if.else

if.then6:                                         ; preds = %for.end
  %11 = load float, ptr %m_sleepTimer7, align 8
  %add8 = fadd float %11, %timestep
  store float %add8, ptr %m_sleepTimer7, align 8
  %m_sleepTimeout = getelementptr inbounds i8, ptr %this, i64 576
  %12 = load float, ptr %m_sleepTimeout, align 8
  %cmp10 = fcmp ogt float %add8, %12
  br i1 %cmp10, label %if.then11, label %if.end21

if.then11:                                        ; preds = %if.then6
  %m_awake.i = getelementptr inbounds i8, ptr %this, i64 562
  store i8 0, ptr %m_awake.i, align 2
  br label %if.end21

if.else:                                          ; preds = %for.end
  store float 0.000000e+00, ptr %m_sleepTimer7, align 8
  %m_canWakeup = getelementptr inbounds i8, ptr %this, i64 564
  %13 = load i8, ptr %m_canWakeup, align 4
  %14 = and i8 %13, 1
  %tobool14.not = icmp eq i8 %14, 0
  br i1 %tobool14.not, label %if.end21, label %if.then15

if.then15:                                        ; preds = %if.else
  %m_awake16 = getelementptr inbounds i8, ptr %this, i64 562
  %15 = load i8, ptr %m_awake16, align 2
  %16 = and i8 %15, 1
  %tobool17.not = icmp eq i8 %16, 0
  br i1 %tobool17.not, label %if.then18, label %if.end21

if.then18:                                        ; preds = %if.then15
  store i8 1, ptr %m_awake16, align 2
  br label %if.end21

if.end21:                                         ; preds = %if.else, %if.then18, %if.then15, %if.then6, %if.then11, %if.then
  ret void
}